target datalayout = "e-m:e-p270:32:32-p271:32:32-p272:64:64-i64:64-i128:128-f80:128-n8:16:32:64-S128"
target triple = "x86_64-pc-linux-gnu"

%"class.std::__cxx11::basic_string" = type { %"struct.std::__cxx11::basic_string<char>::_Alloc_hider", i64, %union.anon }
%"struct.std::__cxx11::basic_string<char>::_Alloc_hider" = type { ptr }
%union.anon = type { i64, [8 x i8] }

@_ZN9CGOptions5klee_E = dso_local global i8 0, align 1
@_ZN9CGOptions6crest_E = dso_local global i8 0, align 1
@_ZN9CGOptions14coverage_test_E = dso_local global i8 0, align 1
@_ZN9CGOptions13conflict_msg_B5cxx11E = dso_local global %"class.std::__cxx11::basic_string" zeroinitializer, align 8
@.str.32 = private unnamed_addr constant [60 x i8] c"You could only specify --klee or --crest or --coverage-test\00", align 1

; Function Attrs: mustprogress nounwind uwtable
define linkonce_odr dso_local noundef i64 @_ZNSt11char_traitsIcE6lengthEPKc(ptr noundef %0) #4 comdat align 2 {
  %2 = alloca ptr, align 8
  store ptr %0, ptr %2, align 8, !tbaa !25
  %3 = load ptr, ptr %2, align 8, !tbaa !25
  %4 = call i64 @strlen(ptr noundef %3) #3
  ret i64 %4
}

; Function Attrs: mustprogress nounwind uwtable
define available_externally noundef i64 @_ZNKSt7__cxx1112basic_stringIcSt11char_traitsIcESaIcEE4sizeEv(ptr noundef nonnull align 8 dereferenceable(32) %0) #4 align 2 {
  %2 = alloca ptr, align 8
  store ptr %0, ptr %2, align 8, !tbaa !23
  %3 = load ptr, ptr %2, align 8
  %4 = getelementptr inbounds nuw %"class.std::__cxx11::basic_string", ptr %3, i32 0, i32 1
  %5 = load i64, ptr %4, align 8, !tbaa !130
  ret i64 %5
}

; Function Attrs: mustprogress uwtable
define available_externally noundef nonnull align 8 dereferenceable(32) ptr @_ZNSt7__cxx1112basic_stringIcSt11char_traitsIcESaIcEE6assignEPKc(ptr noundef nonnull align 8 dereferenceable(32) %0, ptr noundef %1) #6 align 2 {
  %3 = alloca ptr, align 8
  %4 = alloca ptr, align 8
  store ptr %0, ptr %3, align 8, !tbaa !23
  store ptr %1, ptr %4, align 8, !tbaa !25
  %5 = load ptr, ptr %3, align 8
  %6 = call noundef i64 @_ZNKSt7__cxx1112basic_stringIcSt11char_traitsIcESaIcEE4sizeEv(ptr noundef nonnull align 8 dereferenceable(32) %5) #3
  %7 = load ptr, ptr %4, align 8, !tbaa !25
  %8 = load ptr, ptr %4, align 8, !tbaa !25
  %9 = call noundef i64 @_ZNSt11char_traitsIcE6lengthEPKc(ptr noundef %8)
  %10 = call noundef nonnull align 8 dereferenceable(32) ptr @_ZNSt7__cxx1112basic_stringIcSt11char_traitsIcESaIcEE10_M_replaceEmmPKcm(ptr noundef nonnull align 8 dereferenceable(32) %5, i64 noundef 0, i64 noundef %6, ptr noundef %7, i64 noundef %9)
  ret ptr %10
}

; Function Attrs: mustprogress uwtable
define available_externally noundef nonnull align 8 dereferenceable(32) ptr @_ZNSt7__cxx1112basic_stringIcSt11char_traitsIcESaIcEEaSEPKc(ptr noundef nonnull align 8 dereferenceable(32) %0, ptr noundef %1) #6 align 2 {
  %3 = alloca ptr, align 8
  %4 = alloca ptr, align 8
  store ptr %0, ptr %3, align 8, !tbaa !23
  store ptr %1, ptr %4, align 8, !tbaa !25
  %5 = load ptr, ptr %3, align 8
  %6 = load ptr, ptr %4, align 8, !tbaa !25
  %7 = call noundef nonnull align 8 dereferenceable(32) ptr @_ZNSt7__cxx1112basic_stringIcSt11char_traitsIcESaIcEE6assignEPKc(ptr noundef nonnull align 8 dereferenceable(32) %5, ptr noundef %6)
  ret ptr %7
}

; Function Attrs: mustprogress nounwind uwtable
define dso_local noundef zeroext i1 @_ZN9CGOptions13coverage_testEv() #4 align 2 {
  %1 = load i8, ptr @_ZN9CGOptions14coverage_test_E, align 1, !tbaa !15, !range !17, !noundef !18
  %2 = trunc i8 %1 to i1
  ret i1 %2
}

; Function Attrs: mustprogress nounwind uwtable
define dso_local noundef zeroext i1 @_ZN9CGOptions5crestEv() #4 align 2 {
  %1 = load i8, ptr @_ZN9CGOptions6crest_E, align 1, !tbaa !15, !range !17, !noundef !18
  %2 = trunc i8 %1 to i1
  ret i1 %2
}

; Function Attrs: mustprogress nounwind uwtable
define dso_local noundef zeroext i1 @_ZN9CGOptions4kleeEv() #4 align 2 {
  %1 = load i8, ptr @_ZN9CGOptions5klee_E, align 1, !tbaa !15, !range !17, !noundef !18
  %2 = trunc i8 %1 to i1
  ret i1 %2
}

; Function Attrs: mustprogress uwtable
define dso_local noundef zeroext i1 @_ZN9CGOptions22has_extension_conflictEv() #6 align 2 {
  %1 = alloca i1, align 1
  %2 = alloca i32, align 4
  %3 = alloca i32, align 4
  call void @llvm.lifetime.start.p0(i64 4, ptr %2) #3
  store i32 0, ptr %2, align 4, !tbaa !19
  %4 = call noundef zeroext i1 @_ZN9CGOptions4kleeEv()
  br i1 %4, label %5, label %8

5:                                                ; preds = %0
  %6 = load i32, ptr %2, align 4, !tbaa !19
  %7 = add nsw i32 %6, 1
  store i32 %7, ptr %2, align 4, !tbaa !19
  br label %8

8:                                                ; preds = %5, %0
  %9 = call noundef zeroext i1 @_ZN9CGOptions5crestEv()
  br i1 %9, label %10, label %13

10:                                               ; preds = %8
  %11 = load i32, ptr %2, align 4, !tbaa !19
  %12 = add nsw i32 %11, 1
  store i32 %12, ptr %2, align 4, !tbaa !19
  br label %13

13:                                               ; preds = %10, %8
  %14 = call noundef zeroext i1 @_ZN9CGOptions13coverage_testEv()
  br i1 %14, label %15, label %18

15:                                               ; preds = %13
  %16 = load i32, ptr %2, align 4, !tbaa !19
  %17 = add nsw i32 %16, 1
  store i32 %17, ptr %2, align 4, !tbaa !19
  br label %18

18:                                               ; preds = %15, %13
  %19 = load i32, ptr %2, align 4, !tbaa !19
  %20 = icmp sgt i32 %19, 1
  br i1 %20, label %21, label %23

21:                                               ; preds = %18
  %22 = call noundef nonnull align 8 dereferenceable(32) ptr @_ZNSt7__cxx1112basic_stringIcSt11char_traitsIcESaIcEEaSEPKc(ptr noundef nonnull align 8 dereferenceable(32) @_ZN9CGOptions13conflict_msg_B5cxx11E, ptr noundef @.str.32)
  store i1 true, ptr %1, align 1
  store i32 1, ptr %3, align 4
  br label %24

23:                                               ; preds = %18
  store i1 false, ptr %1, align 1
  store i32 1, ptr %3, align 4
  br label %24

24:                                               ; preds = %23, %21
  call void @llvm.lifetime.end.p0(i64 4, ptr %2) #3
  %25 = load i1, ptr %1, align 1
  ret i1 %25
}