; Function Attrs: mustprogress uwtable
define dso_local noundef zeroext i1 @_ZN9CGOptions22has_extension_conflictEv() local_unnamed_addr #7 align 2 {
  %1 = load i8, ptr @_ZN9CGOptions5klee_E, align 1, !tbaa !17, !range !19, !noundef !20
  %2 = load i8, ptr @_ZN9CGOptions6crest_E, align 1, !tbaa !17, !range !19, !noundef !20
  %narrow = add nuw nsw i8 %2, %1
  %3 = load i8, ptr @_ZN9CGOptions14coverage_test_E, align 1, !tbaa !17, !range !19, !noundef !20
  %narrow5 = add nuw nsw i8 %narrow, %3
  %4 = icmp samesign ugt i8 %narrow5, 1
  br i1 %4, label %5, label %8

5:                                                ; preds = %0
  %6 = load i64, ptr getelementptr inbounds nuw (i8, ptr @_ZN9CGOptions13conflict_msg_B5cxx11E, i64 8), align 8, !tbaa !28
  %7 = tail call noundef nonnull align 8 dereferenceable(32) ptr @_ZNSt7__cxx1112basic_stringIcSt11char_traitsIcESaIcEE10_M_replaceEmmPKcm(ptr noundef nonnull align 8 dereferenceable(32) @_ZN9CGOptions13conflict_msg_B5cxx11E, i64 noundef 0, i64 noundef %6, ptr noundef nonnull @.str.32, i64 noundef 59)
  br label %8

8:                                                ; preds = %0, %5
  ret i1 %4
}